(dp1
S'gc_rho'
p2
cnumpy.core.multiarray
scalar
p3
(cnumpy
dtype
p4
(S'f8'
I0
I1
tRp5
(I3
S'<'
NNNI-1
I-1
I0
tbS'\x04\x9b\x19\xd1\xb4\\\xef?'
tRp6
sS'counts_rho'
p7
g3
(g5
S'\x94bL\x9e\xfd\xf8\xce?'
tRp8
s.