(dp1
S'gc_rho'
p2
cnumpy.core.multiarray
scalar
p3
(cnumpy
dtype
p4
(S'f8'
I0
I1
tRp5
(I3
S'<'
NNNI-1
I-1
I0
tbS'!\x8e\xf9\xd4Z\xb6\xef?'
tRp6
sS'counts_rho'
p7
g3
(g5
S'\xcf\xcaO\x88\xb3\xf2\x93?'
tRp8
s.