(dp1
S'gc_rho'
p2
cnumpy.core.multiarray
scalar
p3
(cnumpy
dtype
p4
(S'f8'
I0
I1
tRp5
(I3
S'<'
NNNI-1
I-1
I0
tbS'T\x9b\xe1N\x99\xb6\xef?'
tRp6
sS'counts_rho'
p7
g3
(g5
S'\xf3\x94 O\t\xf2\xa4\xbf'
tRp8
s.