(dp1
S'gc_rho'
p2
cnumpy.core.multiarray
scalar
p3
(cnumpy
dtype
p4
(S'f8'
I0
I1
tRp5
(I3
S'<'
NNNI-1
I-1
I0
tbS'\x00K\xcd\xa6\xbd\x9d\xef?'
tRp6
sS'counts_rho'
p7
g3
(g5
S'\xcc\xcaO\x88\xb3\xf2\x83?'
tRp8
s.