(dp1
S'gc_rho'
p2
cnumpy.core.multiarray
scalar
p3
(cnumpy
dtype
p4
(S'f8'
I0
I1
tRp5
(I3
S'<'
NNNI-1
I-1
I0
tbS'\x00h\xf8W\xdf\xe0\xef?'
tRp6
sS'counts_rho'
p7
g3
(g5
S'\x97\x1e\xd2\xc4\xd8\xba\xef?'
tRp8
s.