(dp1
S'gc_rho'
p2
cnumpy.core.multiarray
scalar
p3
(cnumpy
dtype
p4
(S'f8'
I0
I1
tRp5
(I3
S'<'
NNNI-1
I-1
I0
tbS'\xbf\xbe\xde\xce\xf9\xef\xef?'
tRp6
sS'counts_rho'
p7
g3
(g5
S'nZx\xcb\xceI\xef?'
tRp8
s.