(dp1
S'gc_rho'
p2
cnumpy.core.multiarray
scalar
p3
(cnumpy
dtype
p4
(S'f8'
I0
I1
tRp5
(I3
S'<'
NNNI-1
I-1
I0
tbS'\xfcUD\xef\x0b\x81\xef?'
tRp6
sS'counts_rho'
p7
g3
(g5
S'L\r\xec\x1dS\x03\xab?'
tRp8
s.