(dp1
S'gc_rho'
p2
cnumpy.core.multiarray
scalar
p3
(cnumpy
dtype
p4
(S'f8'
I0
I1
tRp5
(I3
S'<'
NNNI-1
I-1
I0
tbS'\x1a\xbf\xf0\xc3^c\xee?'
tRp6
sS'counts_rho'
p7
g3
(g5
S'\xc6\xda7\xac}\xc3\x9a?'
tRp8
s.