(dp1
S'gc_rho'
p2
cnumpy.core.multiarray
scalar
p3
(cnumpy
dtype
p4
(S'f8'
I0
I1
tRp5
(I3
S'<'
NNNI-1
I-1
I0
tbS'\xb7\xbc\x07\xed\x13\x14\xef?'
tRp6
sS'counts_rho'
p7
g3
(g5
S'\xa3\x8b.\xba\xe8\xa2\xcb?'
tRp8
s.