(dp1
S'gc_rho'
p2
cnumpy.core.multiarray
scalar
p3
(cnumpy
dtype
p4
(S'f8'
I0
I1
tRp5
(I3
S'<'
NNNI-1
I-1
I0
tbS'?\xd6Q\x18\xf2\xa6\xeb?'
tRp6
sS'counts_rho'
p7
g3
(g5
S'\xb0wL\r\xec\x1d\xb3\xbf'
tRp8
s.