(dp1
S'gc_rho'
p2
cnumpy.core.multiarray
scalar
p3
(cnumpy
dtype
p4
(S'f8'
I0
I1
tRp5
(I3
S'<'
NNNI-1
I-1
I0
tbS'\xcfA\x83\x82\x04\xed\xef?'
tRp6
sS'counts_rho'
p7
g3
(g5
S'\x85:\xa8\x83:\xa8\xef?'
tRp8
s.