(dp1
S'gc_rho'
p2
cnumpy.core.multiarray
scalar
p3
(cnumpy
dtype
p4
(S'f8'
I0
I1
tRp5
(I3
S'<'
NNNI-1
I-1
I0
tbS' \xfa[\xf0\x16\xe4\xef?'
tRp6
sS'counts_rho'
p7
g3
(g5
S'\xcc\xceI\x11\xe6\xa6\xef?'
tRp8
s.