(dp1
S'gc_rho'
p2
cnumpy.core.multiarray
scalar
p3
(cnumpy
dtype
p4
(S'f8'
I0
I1
tRp5
(I3
S'<'
NNNI-1
I-1
I0
tbS']\x0f?%\xa6\xd1\xef?'
tRp6
sS'counts_rho'
p7
g3
(g5
S'\x8a\xb1u\xcf\xc8\xd2\xcb?'
tRp8
s.