(dp1
S'gc_rho'
p2
cnumpy.core.multiarray
scalar
p3
(cnumpy
dtype
p4
(S'f8'
I0
I1
tRp5
(I3
S'<'
NNNI-1
I-1
I0
tbS'\xba\x15\xf3W\xdci\xef?'
tRp6
sS'counts_rho'
p7
g3
(g5
S'\xd3\xc8\xd2C\x9a\x18\x9b\xbf'
tRp8
s.