(dp1
S'gc_rho'
p2
cnumpy.core.multiarray
scalar
p3
(cnumpy
dtype
p4
(S'f8'
I0
I1
tRp5
(I3
S'<'
NNNI-1
I-1
I0
tbS'\x06\xf6\x97t\xc7\xb9\xef?'
tRp6
sS'counts_rho'
p7
g3
(g5
S'\xe2\xac\xfc\x848+\xcf?'
tRp8
s.