(dp1
S'gc_rho'
p2
cnumpy.core.multiarray
scalar
p3
(cnumpy
dtype
p4
(S'f8'
I0
I1
tRp5
(I3
S'<'
NNNI-1
I-1
I0
tbS'Z\x80\xda7\x06\xab\xef?'
tRp6
sS'counts_rho'
p7
g3
(g5
S'B\x9c\x95\x9f\x10g\xb5?'
tRp8
s.